target datalayout = "e-m:e-p270:32:32-p271:32:32-p272:64:64-i64:64-i128:128-f80:128-n8:16:32:64-S128"
target triple = "x86_64-pc-linux-gnu"

%class.LogTagSet = type { ptr, i64, [5 x i32], [4 x i8], %class.LogOutputList, %class.LogDecorators, ptr }
%class.LogOutputList = type <{ [6 x ptr], i32, [4 x i8] }>
%class.LogDecorators = type { i32 }
%class.ThreadCritical = type { i8 }

@_ZN18SafepointMechanism22_poll_word_armed_valueE = hidden global i64 0, align 8
@_ZN18SafepointMechanism25_poll_word_disarmed_valueE = hidden global i64 0, align 8
@_ZN18SafepointMechanism22_poll_page_armed_valueE = hidden global i64 0, align 8
@_ZN18SafepointMechanism25_poll_page_disarmed_valueE = hidden global i64 0, align 8
@_ZN18SafepointMechanism13_polling_pageE = hidden global ptr null, align 8
@.str = private unnamed_addr constant [40 x i8] c"Unable to commit Safepoint polling page\00", align 1
@.str.4 = private unnamed_addr constant [91 x i8] c"SafePoint Polling address, bad (protected) page:0x%016lx, good (unprotected) page:0x%016lx\00", align 1
@_ZN16LogTagSetMappingILN6LogTag4typeE105ELS1_0ELS1_0ELS1_0ELS1_0ELS1_0EE7_tagsetE = linkonce_odr hidden global %class.LogTagSet zeroinitializer, comdat, align 8
@_ZN6OSInfo13_vm_page_sizeE = external global i64, align 8
@_ZN10MemTracker15_tracking_levelE = external global i32, align 4

; Function Attrs: mustprogress nounwind uwtable
define linkonce_odr hidden noundef zeroext i1 @_ZNK13LogOutputList8is_levelEN8LogLevel4typeE(ptr noundef nonnull align 8 dereferenceable(52) %0, i32 noundef %1) #1 comdat align 2 {
  %3 = alloca ptr, align 8
  %4 = alloca i32, align 4
  store ptr %0, ptr %3, align 8
  store i32 %1, ptr %4, align 4
  %5 = load ptr, ptr %3, align 8
  %6 = getelementptr inbounds %class.LogOutputList, ptr %5, i32 0, i32 0
  %7 = load i32, ptr %4, align 4
  %8 = zext i32 %7 to i64
  %9 = getelementptr inbounds [6 x ptr], ptr %6, i64 0, i64 %8
  %10 = load volatile ptr, ptr %9, align 8
  %11 = icmp ne ptr %10, null
  ret i1 %11
}

; Function Attrs: mustprogress nounwind uwtable
define linkonce_odr hidden noundef zeroext i1 @_ZNK9LogTagSet8is_levelEN8LogLevel4typeE(ptr noundef nonnull align 8 dereferenceable(112) %0, i32 noundef %1) #1 comdat align 2 {
  %3 = alloca ptr, align 8
  %4 = alloca i32, align 4
  store ptr %0, ptr %3, align 8
  store i32 %1, ptr %4, align 4
  %5 = load ptr, ptr %3, align 8
  %6 = getelementptr inbounds %class.LogTagSet, ptr %5, i32 0, i32 4
  %7 = load i32, ptr %4, align 4
  %8 = call noundef zeroext i1 @_ZNK13LogOutputList8is_levelEN8LogLevel4typeE(ptr noundef nonnull align 8 dereferenceable(52) %6, i32 noundef %7)
  ret i1 %8
}

; Function Attrs: mustprogress nounwind uwtable
define linkonce_odr hidden noundef nonnull align 8 dereferenceable(112) ptr @_ZN16LogTagSetMappingILN6LogTag4typeE105ELS1_0ELS1_0ELS1_0ELS1_0ELS1_0EE6tagsetEv() #1 comdat align 2 {
  ret ptr @_ZN16LogTagSetMappingILN6LogTag4typeE105ELS1_0ELS1_0ELS1_0ELS1_0ELS1_0EE7_tagsetE
}

; Function Attrs: mustprogress nounwind uwtable
define linkonce_odr hidden noundef zeroext i1 @_ZN10MemTracker7enabledEv() #1 comdat align 2 {
  %1 = load i32, ptr @_ZN10MemTracker15_tracking_levelE, align 4
  %2 = icmp sgt i32 %1, 1
  ret i1 %2
}

; Function Attrs: mustprogress nounwind uwtable
define linkonce_odr hidden void @_ZN10MemTracker16assert_post_initEv() #1 comdat align 2 {
  ret void
}

; Function Attrs: mustprogress nounwind uwtable
define linkonce_odr hidden noundef i64 @_ZN6OSInfo12vm_page_sizeEv() #1 comdat align 2 {
  %1 = load i64, ptr @_ZN6OSInfo13_vm_page_sizeE, align 8
  ret i64 %1
}

; Function Attrs: mustprogress nounwind uwtable
define linkonce_odr hidden noundef i64 @_Z3p2iPVKv(ptr noundef %0) #1 comdat {
  %2 = alloca ptr, align 8
  store ptr %0, ptr %2, align 8
  %3 = load ptr, ptr %2, align 8
  %4 = ptrtoint ptr %3 to i64
  ret i64 %4
}

; Function Attrs: mustprogress nounwind uwtable
define linkonce_odr hidden noundef zeroext i1 @_ZN7LogImplILN6LogTag4typeE105ELS1_0ELS1_0ELS1_0ELS1_0ELS1_0EE8is_levelEN8LogLevel4typeE(i32 noundef %0) #1 comdat align 2 {
  %2 = alloca i32, align 4
  store i32 %0, ptr %2, align 4
  %3 = call noundef nonnull align 8 dereferenceable(112) ptr @_ZN16LogTagSetMappingILN6LogTag4typeE105ELS1_0ELS1_0ELS1_0ELS1_0ELS1_0EE6tagsetEv()
  %4 = load i32, ptr %2, align 4
  %5 = call noundef zeroext i1 @_ZNK9LogTagSet8is_levelEN8LogLevel4typeE(ptr noundef nonnull align 8 dereferenceable(112) %3, i32 noundef %4)
  ret i1 %5
}

; Function Attrs: mustprogress nounwind uwtable
define linkonce_odr hidden void @_ZN10MemTracker26record_virtual_memory_typeEPv8MEMFLAGS(ptr noundef %0, i8 noundef zeroext %1) #1 comdat align 2 {
  %3 = alloca ptr, align 8
  %4 = alloca i8, align 1
  %5 = alloca %class.ThreadCritical, align 1
  store ptr %0, ptr %3, align 8
  store i8 %1, ptr %4, align 1
  call void @_ZN10MemTracker16assert_post_initEv()
  %6 = call noundef zeroext i1 @_ZN10MemTracker7enabledEv()
  br i1 %6, label %8, label %7

7:                                                ; preds = %2
  br label %14

8:                                                ; preds = %2
  %9 = load ptr, ptr %3, align 8
  %10 = icmp ne ptr %9, null
  br i1 %10, label %11, label %14

11:                                               ; preds = %8
  call void @_ZN14ThreadCriticalC1Ev(ptr noundef nonnull align 1 dereferenceable(1) %5)
  %12 = load ptr, ptr %3, align 8
  %13 = load i8, ptr %4, align 1
  call void @_ZN20VirtualMemoryTracker24set_reserved_region_typeEPh8MEMFLAGS(ptr noundef %12, i8 noundef zeroext %13)
  call void @_ZN14ThreadCriticalD1Ev(ptr noundef nonnull align 1 dereferenceable(1) %5) #7
  br label %14

14:                                               ; preds = %11, %8, %7
  ret void
}

; Function Attrs: mustprogress nounwind uwtable
define linkonce_odr hidden noundef i64 @_ZN2os12vm_page_sizeEv() #1 comdat align 2 {
  %1 = call noundef i64 @_ZN6OSInfo12vm_page_sizeEv()
  ret i64 %1
}

; Function Attrs: mustprogress nounwind uwtable
define linkonce_odr hidden noundef i64 @_ZN18SafepointMechanism8poll_bitEv() #1 comdat align 2 {
  ret i64 1
}

; Function Attrs: mustprogress nounwind uwtable
define hidden void @_ZN18SafepointMechanism18default_initializeEv() #1 align 2 {
  %1 = alloca i8, align 1
  %2 = alloca i64, align 8
  %3 = alloca i64, align 8
  %4 = alloca ptr, align 8
  %5 = alloca ptr, align 8
  %6 = alloca ptr, align 8
  %7 = call noundef i64 @_ZN18SafepointMechanism8poll_bitEv()
  store i64 %7, ptr @_ZN18SafepointMechanism22_poll_word_armed_valueE, align 8
  %8 = load i64, ptr @_ZN18SafepointMechanism22_poll_word_armed_valueE, align 8
  %9 = xor i64 %8, -1
  store i64 %9, ptr @_ZN18SafepointMechanism25_poll_word_disarmed_valueE, align 8
  store i8 0, ptr %1, align 1
  %10 = load i8, ptr %1, align 1
  %11 = trunc i8 %10 to i1
  br i1 %11, label %12, label %14

12:                                               ; preds = %0
  %13 = call noundef i64 @_ZN18SafepointMechanism8poll_bitEv()
  store i64 %13, ptr @_ZN18SafepointMechanism22_poll_page_armed_valueE, align 8
  store i64 0, ptr @_ZN18SafepointMechanism25_poll_page_disarmed_valueE, align 8
  br label %46

14:                                               ; preds = %0
  %15 = call noundef i64 @_ZN2os12vm_page_sizeEv()
  store i64 %15, ptr %2, align 8
  %16 = load i64, ptr %2, align 8
  %17 = mul i64 2, %16
  store i64 %17, ptr %3, align 8
  %18 = load i64, ptr %3, align 8
  %19 = call noundef ptr @_ZN2os14reserve_memoryEmb8MEMFLAGS(i64 noundef %18, i1 noundef zeroext false, i8 noundef zeroext 27)
  store ptr %19, ptr %4, align 8
  %20 = load ptr, ptr %4, align 8
  %21 = load i64, ptr %3, align 8
  call void @_ZN2os21commit_memory_or_exitEPcmbPKc(ptr noundef %20, i64 noundef %21, i1 noundef zeroext false, ptr noundef @.str)
  %22 = load ptr, ptr %4, align 8
  call void @_ZN10MemTracker26record_virtual_memory_typeEPv8MEMFLAGS(ptr noundef %22, i8 noundef zeroext 21)
  %23 = load ptr, ptr %4, align 8
  store ptr %23, ptr %5, align 8
  %24 = load ptr, ptr %4, align 8
  %25 = load i64, ptr %2, align 8
  %26 = getelementptr inbounds i8, ptr %24, i64 %25
  store ptr %26, ptr %6, align 8
  %27 = load ptr, ptr %5, align 8
  %28 = load i64, ptr %2, align 8
  %29 = call noundef zeroext i1 @_ZN2os14protect_memoryEPcmNS_8ProtTypeEb(ptr noundef %27, i64 noundef %28, i32 noundef 0, i1 noundef zeroext true)
  %30 = load ptr, ptr %6, align 8
  %31 = load i64, ptr %2, align 8
  %32 = call noundef zeroext i1 @_ZN2os14protect_memoryEPcmNS_8ProtTypeEb(ptr noundef %30, i64 noundef %31, i32 noundef 1, i1 noundef zeroext true)
  %33 = call noundef zeroext i1 @_ZN7LogImplILN6LogTag4typeE105ELS1_0ELS1_0ELS1_0ELS1_0ELS1_0EE8is_levelEN8LogLevel4typeE(i32 noundef 3)
  br i1 %33, label %35, label %34

34:                                               ; preds = %14
  br label %40

35:                                               ; preds = %14
  %36 = load ptr, ptr %5, align 8
  %37 = call noundef i64 @_Z3p2iPVKv(ptr noundef %36)
  %38 = load ptr, ptr %6, align 8
  %39 = call noundef i64 @_Z3p2iPVKv(ptr noundef %38)
  call void (ptr, ...) @_ZN7LogImplILN6LogTag4typeE105ELS1_0ELS1_0ELS1_0ELS1_0ELS1_0EE5writeILN8LogLevel4typeE3EEEvPKcz(ptr noundef @.str.4, i64 noundef %37, i64 noundef %39)
  br label %40

40:                                               ; preds = %35, %34
  %41 = load ptr, ptr %5, align 8
  %42 = ptrtoint ptr %41 to i64
  store i64 %42, ptr @_ZN18SafepointMechanism22_poll_page_armed_valueE, align 8
  %43 = load ptr, ptr %6, align 8
  %44 = ptrtoint ptr %43 to i64
  store i64 %44, ptr @_ZN18SafepointMechanism25_poll_page_disarmed_valueE, align 8
  %45 = load ptr, ptr %5, align 8
  store ptr %45, ptr @_ZN18SafepointMechanism13_polling_pageE, align 8
  br label %46

46:                                               ; preds = %40, %12
  ret void
}