; Function Attrs: mustprogress nounwind uwtable
define hidden void @_ZN18SafepointMechanism18default_initializeEv() local_unnamed_addr #0 align 2 {
  %1 = alloca %class.ThreadCritical, align 1
  store i64 1, ptr @_ZN18SafepointMechanism22_poll_word_armed_valueE, align 8
  store i64 -2, ptr @_ZN18SafepointMechanism25_poll_word_disarmed_valueE, align 8
  %2 = load i64, ptr @_ZN6OSInfo13_vm_page_sizeE, align 8
  %3 = shl i64 %2, 1
  %4 = tail call noundef ptr @_ZN2os14reserve_memoryEmb8MEMFLAGS(i64 noundef %3, i1 noundef zeroext false, i8 noundef zeroext 27) #9
  tail call void @_ZN2os21commit_memory_or_exitEPcmbPKc(ptr noundef %4, i64 noundef %3, i1 noundef zeroext false, ptr noundef nonnull @.str) #9
  call void @llvm.lifetime.start.p0(i64 1, ptr nonnull %1)
  %5 = load i32, ptr @_ZN10MemTracker15_tracking_levelE, align 4
  %6 = icmp sgt i32 %5, 1
  %7 = icmp ne ptr %4, null
  %or.cond.i = and i1 %7, %6
  br i1 %or.cond.i, label %8, label %_ZN10MemTracker26record_virtual_memory_typeEPv8MEMFLAGS.exit

8:                                                ; preds = %0
  call void @_ZN14ThreadCriticalC1Ev(ptr noundef nonnull align 1 dereferenceable(1) %1) #9
  call void @_ZN20VirtualMemoryTracker24set_reserved_region_typeEPh8MEMFLAGS(ptr noundef nonnull %4, i8 noundef zeroext 21) #9
  call void @_ZN14ThreadCriticalD1Ev(ptr noundef nonnull align 1 dereferenceable(1) %1) #9
  br label %_ZN10MemTracker26record_virtual_memory_typeEPv8MEMFLAGS.exit

_ZN10MemTracker26record_virtual_memory_typeEPv8MEMFLAGS.exit: ; preds = %0, %8
  call void @llvm.lifetime.end.p0(i64 1, ptr nonnull %1)
  %9 = getelementptr inbounds i8, ptr %4, i64 %2
  %10 = call noundef zeroext i1 @_ZN2os14protect_memoryEPcmNS_8ProtTypeEb(ptr noundef %4, i64 noundef %2, i32 noundef 0, i1 noundef zeroext true) #9
  %11 = call noundef zeroext i1 @_ZN2os14protect_memoryEPcmNS_8ProtTypeEb(ptr noundef %9, i64 noundef %2, i32 noundef 1, i1 noundef zeroext true) #9
  %12 = load volatile ptr, ptr getelementptr inbounds (i8, ptr @_ZN16LogTagSetMappingILN6LogTag4typeE105ELS1_0ELS1_0ELS1_0ELS1_0ELS1_0EE7_tagsetE, i64 64), align 8
  %.not = icmp eq ptr %12, null
  %.pre = ptrtoint ptr %4 to i64
  %.pre17 = ptrtoint ptr %9 to i64
  br i1 %.not, label %_ZN10MemTracker26record_virtual_memory_typeEPv8MEMFLAGS.exit._crit_edge, label %13

13:                                               ; preds = %_ZN10MemTracker26record_virtual_memory_typeEPv8MEMFLAGS.exit
  call void (ptr, ...) @_ZN7LogImplILN6LogTag4typeE105ELS1_0ELS1_0ELS1_0ELS1_0ELS1_0EE5writeILN8LogLevel4typeE3EEEvPKcz(ptr noundef nonnull @.str.4, i64 noundef %.pre, i64 noundef %.pre17)
  br label %_ZN10MemTracker26record_virtual_memory_typeEPv8MEMFLAGS.exit._crit_edge

_ZN10MemTracker26record_virtual_memory_typeEPv8MEMFLAGS.exit._crit_edge: ; preds = %_ZN10MemTracker26record_virtual_memory_typeEPv8MEMFLAGS.exit, %13
  store i64 %.pre, ptr @_ZN18SafepointMechanism22_poll_page_armed_valueE, align 8
  store i64 %.pre17, ptr @_ZN18SafepointMechanism25_poll_page_disarmed_valueE, align 8
  store ptr %4, ptr @_ZN18SafepointMechanism13_polling_pageE, align 8
  ret void
}